Certificate:
    Data:
        Version: 1 (0x0)
        Serial Number:
            e0:54:ae:46:2e:16:4f:59
        Signature Algorithm: sha1WithRSAEncryption
        Issuer: CN=*.3ofcoins.net, C=PL, L=Resko, O=Three of Coins/subjectAltName=DNS:3ofcoins.net
        Validity
            Not Before: Jun  1 14:34:17 2013 GMT
            Not After : May 31 14:34:17 2018 GMT
        Subject: CN=*.3ofcoins.net, C=PL, L=Resko, O=Three of Coins/subjectAltName=DNS:3ofcoins.net
        Subject Public Key Info:
            Public Key Algorithm: rsaEncryption
            RSA Public Key: (2048 bit)
                Modulus (2048 bit):
                    00:ae:d7:d1:e5:a7:16:5c:30:4f:d4:20:bf:78:fa:
                    41:b2:d8:95:fb:09:08:c8:75:f2:dd:ce:7a:1d:8f:
                    fb:4f:7e:b2:23:13:b4:b5:e7:6d:6f:73:89:e7:6c:
                    8f:c1:5a:a1:c3:d6:83:52:55:5b:b8:dc:d8:06:20:
                    ef:70:18:38:62:54:aa:8a:83:d1:07:2f:20:51:ce:
                    38:5d:20:68:b2:f2:1c:d8:70:d0:9c:3b:a5:c9:fa:
                    0f:67:d4:98:fc:a9:6f:44:ea:81:60:87:d5:80:02:
                    f8:ca:36:d6:10:41:3e:42:bc:16:b0:57:c1:61:d0:
                    d7:f7:64:c3:8d:c8:85:9f:2d:49:0f:d5:41:c8:1f:
                    0c:d1:e9:b8:29:1b:d3:71:fc:d2:cf:00:02:7b:24:
                    a8:4e:0a:96:44:63:2c:b9:85:38:b7:fc:e1:5c:00:
                    da:b3:fd:b4:32:65:7d:59:ae:f0:be:b8:65:55:b4:
                    41:fa:23:92:cf:4b:98:24:68:36:67:48:81:02:4e:
                    16:b0:a2:ff:41:b6:22:af:e8:f8:42:b2:65:ac:4f:
                    ab:25:8e:13:5b:14:ba:37:6b:56:3f:4d:48:51:48:
                    68:44:ab:0e:dc:20:96:4a:aa:03:7b:ec:fa:34:e4:
                    6f:dd:15:5d:52:b9:5c:ca:bf:07:c2:22:ea:b6:e0:
                    a8:11
                Exponent: 65537 (0x10001)
    Signature Algorithm: sha1WithRSAEncryption
        58:fd:cf:fc:84:a7:bd:17:e6:b7:d7:17:85:6e:58:65:28:fd:
        37:4f:5b:f0:63:56:93:70:e6:4e:32:91:0b:41:50:a7:ea:56:
        10:d6:6e:cc:8e:5c:9a:01:1c:25:ed:81:72:af:ce:21:3d:b0:
        22:4b:f5:e3:10:3a:b3:16:ad:01:ad:21:ff:ee:b2:f9:ac:53:
        5e:ee:44:fa:93:83:3a:8f:2b:bb:05:02:0e:fe:34:34:33:33:
        2d:91:37:39:d3:23:48:f0:62:4d:98:fb:49:38:c4:b2:3d:03:
        25:aa:da:68:ee:a0:14:f3:2f:05:20:62:5a:ef:28:e9:bd:7c:
        0d:ce:e9:43:dc:bb:94:37:f8:de:b2:89:33:19:e2:c0:6d:f1:
        72:26:ea:e5:9f:bd:3b:48:d7:c5:15:5b:79:72:1d:33:cc:83:
        77:4e:90:eb:e2:60:40:e9:8b:89:4a:81:9f:4c:b9:ce:06:a9:
        e0:a8:2c:bd:4f:aa:76:5e:88:32:b4:00:b8:db:2f:d5:b8:1d:
        1e:72:49:80:9b:b3:dd:39:37:ee:ac:22:76:0c:95:d3:4c:8f:
        67:ac:bb:83:a3:b1:da:c2:b2:66:77:4d:ed:75:fe:a8:d9:5e:
        e2:86:cd:51:58:c4:20:08:2f:0a:2c:c9:82:f0:d2:f3:36:8a:
        2c:d9:4a:5a
-----BEGIN CERTIFICATE-----
MIIDUDCCAjgCCQDgVK5GLhZPWTANBgkqhkiG9w0BAQUFADBqMRcwFQYDVQQDFA4q
LjNvZmNvaW5zLm5ldDELMAkGA1UEBhMCUEwxDjAMBgNVBAcTBVJlc2tvMRcwFQYD
VQQKEw5UaHJlZSBvZiBDb2luczEZMBcGA1UdERMQRE5TOjNvZmNvaW5zLm5ldDAe
Fw0xMzA2MDExNDM0MTdaFw0xODA1MzExNDM0MTdaMGoxFzAVBgNVBAMUDiouM29m
Y29pbnMubmV0MQswCQYDVQQGEwJQTDEOMAwGA1UEBxMFUmVza28xFzAVBgNVBAoT
DlRocmVlIG9mIENvaW5zMRkwFwYDVR0RExBETlM6M29mY29pbnMubmV0MIIBIjAN
BgkqhkiG9w0BAQEFAAOCAQ8AMIIBCgKCAQEArtfR5acWXDBP1CC/ePpBstiV+wkI
yHXy3c56HY/7T36yIxO0tedtb3OJ52yPwVqhw9aDUlVbuNzYBiDvcBg4YlSqioPR
By8gUc44XSBosvIc2HDQnDulyfoPZ9SY/KlvROqBYIfVgAL4yjbWEEE+QrwWsFfB
YdDX92TDjciFny1JD9VByB8M0em4KRvTcfzSzwACeySoTgqWRGMsuYU4t/zhXADa
s/20MmV9Wa7wvrhlVbRB+iOSz0uYJGg2Z0iBAk4WsKL/QbYir+j4QrJlrE+rJY4T
WxS6N2tWP01IUUhoRKsO3CCWSqoDe+z6NORv3RVdUrlcyr8HwiLqtuCoEQIDAQAB
MA0GCSqGSIb3DQEBBQUAA4IBAQBY/c/8hKe9F+a31xeFblhlKP03T1vwY1aTcOZO
MpELQVCn6lYQ1m7MjlyaARwl7YFyr84hPbAiS/XjEDqzFq0BrSH/7rL5rFNe7kT6
k4M6jyu7BQIO/jQ0MzMtkTc50yNI8GJNmPtJOMSyPQMlqtpo7qAU8y8FIGJa7yjp
vXwNzulD3LuUN/jesokzGeLAbfFyJurln707SNfFFVt5ch0zzIN3TpDr4mBA6YuJ
SoGfTLnOBqngqCy9T6p2XogytAC42y/VuB0eckmAm7PdOTfurCJ2DJXTTI9nrLuD
o7HawrJmd03tdf6o2V7ihs1RWMQgCC8KLMmC8NLzNoos2Upa
-----END CERTIFICATE-----
