Certificate Request:
    Data:
        Version: 0 (0x0)
        Subject: CN=*.analyticsfire.com, C=US, O=New Dawn Analytics, Inc.
        Subject Public Key Info:
            Public Key Algorithm: rsaEncryption
            RSA Public Key: (2048 bit)
                Modulus (2048 bit):
                    00:d0:2b:ed:93:8a:89:82:75:6f:6a:50:61:20:8e:
                    03:91:f2:0a:42:97:6f:7e:ae:f9:3c:51:9b:f0:16:
                    6c:c2:99:11:e8:a3:3f:53:e5:d0:ab:80:f5:4e:75:
                    a1:be:04:a4:8d:d1:ac:0b:15:d6:31:cc:48:ca:67:
                    52:a4:12:ca:de:c6:7b:ca:0e:cf:6f:24:25:e0:9a:
                    6a:0f:5f:9d:d7:75:41:92:2c:4c:00:e8:63:79:49:
                    5e:7d:42:f9:6e:54:5b:f4:a4:ab:91:68:1d:d3:7f:
                    19:93:5d:8e:57:f6:84:0b:0f:ea:6a:70:19:6d:4e:
                    89:d7:0a:76:7d:c4:41:99:49:cc:b0:35:ee:38:db:
                    d9:75:56:90:d5:70:d8:9f:5a:69:ba:05:5d:dd:6b:
                    6e:da:2a:b7:5b:41:67:50:96:57:2a:5a:e1:54:5d:
                    07:5e:bb:c9:37:e9:2c:91:82:5a:f2:aa:a3:8e:6d:
                    e5:55:7f:0c:c4:cc:1b:aa:af:c7:57:28:60:83:44:
                    37:bf:47:ed:45:a2:8a:b6:bb:d9:d6:ff:d2:b3:b0:
                    e8:7c:87:0e:08:eb:dd:14:d7:27:75:55:c3:8f:ad:
                    e4:f1:69:2f:28:02:f6:d5:63:94:9b:f8:8f:82:70:
                    21:9e:96:cf:07:4c:c6:8c:8c:a1:67:7b:86:f8:32:
                    4c:f7
                Exponent: 65537 (0x10001)
        Attributes:
        Requested Extensions:
            X509v3 Basic Constraints: 
                CA:FALSE
            X509v3 Key Usage: 
                Digital Signature, Non Repudiation, Key Encipherment
            X509v3 Subject Alternative Name: 
                DNS:*.analyticsfire.com, DNS:analyticsfire.com, DNS:*.i.analyticsfire.com
    Signature Algorithm: sha1WithRSAEncryption
        c6:6f:f0:f8:e7:c1:c3:ba:c6:cb:76:95:70:b2:c8:c8:27:45:
        c2:04:bf:ae:b0:4a:ef:79:ba:33:bb:d8:a1:45:fa:34:a4:da:
        23:8f:93:a5:77:ef:2e:4d:31:ba:c9:e3:94:2d:e0:b3:f0:a6:
        6a:30:4e:4f:4d:1c:22:a9:f1:88:33:4d:74:a4:4f:23:3c:cd:
        a6:5b:eb:6f:1f:4a:8b:c4:7f:6e:67:e1:2e:64:ea:a2:9a:2a:
        7f:b7:62:98:99:83:b7:75:7c:e6:a1:72:fe:a9:c5:68:67:68:
        34:e0:e4:96:61:0d:e0:59:7d:00:82:89:09:d8:29:ae:44:d5:
        11:78:0d:c2:b6:c6:d2:c3:08:d2:a9:07:6d:b1:5e:73:d5:44:
        0a:f3:35:b5:3f:be:ef:a3:74:33:6d:bd:00:27:d9:bd:6f:72:
        b6:fd:99:48:e3:b9:3f:12:b6:af:ac:82:71:29:d8:f7:11:07:
        c4:ab:de:19:af:b4:5e:36:e1:15:c9:4b:4d:f3:6e:0a:89:87:
        d9:d0:1b:62:3a:9d:0b:b8:87:d8:f9:8a:51:db:a7:85:8f:9d:
        a2:9b:de:7b:eb:a5:8c:43:72:03:ca:70:22:0c:2f:ef:42:30:
        e6:02:81:4b:99:85:fa:fa:a5:4d:be:35:cb:0f:56:40:ba:85:
        09:76:00:50
-----BEGIN CERTIFICATE REQUEST-----
MIIDBjCCAe4CAQAwTjEcMBoGA1UEAxQTKi5hbmFseXRpY3NmaXJlLmNvbTELMAkG
A1UEBhMCVVMxITAfBgNVBAoTGE5ldyBEYXduIEFuYWx5dGljcywgSW5jLjCCASIw
DQYJKoZIhvcNAQEBBQADggEPADCCAQoCggEBANAr7ZOKiYJ1b2pQYSCOA5HyCkKX
b36u+TxRm/AWbMKZEeijP1Pl0KuA9U51ob4EpI3RrAsV1jHMSMpnUqQSyt7Ge8oO
z28kJeCaag9fndd1QZIsTADoY3lJXn1C+W5UW/Skq5FoHdN/GZNdjlf2hAsP6mpw
GW1OidcKdn3EQZlJzLA17jjb2XVWkNVw2J9aaboFXd1rbtoqt1tBZ1CWVypa4VRd
B167yTfpLJGCWvKqo45t5VV/DMTMG6qvx1coYINEN79H7UWiira72db/0rOw6HyH
Dgjr3RTXJ3VVw4+t5PFpLygC9tVjlJv4j4JwIZ6WzwdMxoyMoWd7hvgyTPcCAwEA
AaBzMHEGCSqGSIb3DQEJDjFkMGIwCQYDVR0TBAIwADALBgNVHQ8EBAMCBeAwSAYD
VR0RBEEwP4ITKi5hbmFseXRpY3NmaXJlLmNvbYIRYW5hbHl0aWNzZmlyZS5jb22C
FSouaS5hbmFseXRpY3NmaXJlLmNvbTANBgkqhkiG9w0BAQUFAAOCAQEAxm/w+OfB
w7rGy3aVcLLIyCdFwgS/rrBK73m6M7vYoUX6NKTaI4+TpXfvLk0xusnjlC3gs/Cm
ajBOT00cIqnxiDNNdKRPIzzNplvrbx9Ki8R/bmfhLmTqopoqf7dimJmDt3V85qFy
/qnFaGdoNODklmEN4Fl9AIKJCdgprkTVEXgNwrbG0sMI0qkHbbFec9VECvM1tT++
76N0M229ACfZvW9ytv2ZSOO5PxK2r6yCcSnY9xEHxKveGa+0XjbhFclLTfNuComH
2dAbYjqdC7iH2PmKUdunhY+dopvee+uljENyA8pwIgwv70Iw5gKBS5mF+vqlTb41
yw9WQLqFCXYAUA==
-----END CERTIFICATE REQUEST-----
